target datalayout = "e-m:e-p270:32:32-p271:32:32-p272:64:64-i64:64-i128:128-f80:128-n8:16:32:64-S128"
target triple = "x86_64-pc-linux-gnu"

%struct.H5D_dset_io_info_t = type { ptr, ptr, %struct.H5D_layout_ops_t, %union.H5_flexible_const_ptr_t, %struct.H5D_io_ops_t, ptr, i64, ptr, ptr, %union.anon.0, ptr, %struct.H5D_type_info_t, i8 }
%struct.H5D_layout_ops_t = type { ptr, ptr, ptr, ptr, ptr, ptr, ptr, ptr, ptr, ptr, ptr, ptr, ptr }
%union.H5_flexible_const_ptr_t = type { ptr }
%struct.H5D_io_ops_t = type { ptr, ptr, ptr, ptr }
%union.anon.0 = type { ptr }
%struct.H5D_type_info_t = type { ptr, ptr, ptr, ptr, ptr, i64, i64, i8, i8, ptr, i32, i64 }

@.str = private unnamed_addr constant [112 x i8] c"generated/home/dtcxzyw/WorkSpace/Projects/compilers/llvm-opt-benchmark/bench/hdf5/hdf5/src/H5VLnative_dataset.c\00", align 1
@H5E_DATASET_g = external global i64, align 8
@H5E_CANTINIT_g = external global i64, align 8
@__func__.H5VL__native_dataset_read = private unnamed_addr constant [26 x i8] c"H5VL__native_dataset_read\00", align 1
@H5E_CANTALLOC_g = external global i64, align 8
@.str.8 = private unnamed_addr constant [41 x i8] c"couldn't allocate dset info array buffer\00", align 1
@.str.9 = private unnamed_addr constant [44 x i8] c"unable to set up file and memory dataspaces\00", align 1
@H5E_READERROR_g = external global i64, align 8
@.str.10 = private unnamed_addr constant [16 x i8] c"can't read data\00", align 1
@H5E_CANTRELEASE_g = external global i64, align 8
@.str.11 = private unnamed_addr constant [31 x i8] c"unable to release dataset info\00", align 1

; Function Attrs: nounwind uwtable
define i32 @H5VL__native_dataset_read(i64 noundef %0, ptr noundef %1, ptr noundef %2, ptr noundef %3, ptr noundef %4, i64 noundef %5, ptr noundef %6, ptr noundef %7) #0 {
  %9 = alloca i64, align 8
  %10 = alloca ptr, align 8
  %11 = alloca ptr, align 8
  %12 = alloca ptr, align 8
  %13 = alloca ptr, align 8
  %14 = alloca i64, align 8
  %15 = alloca ptr, align 8
  %16 = alloca ptr, align 8
  %17 = alloca %struct.H5D_dset_io_info_t, align 8
  %18 = alloca ptr, align 8
  %19 = alloca i32, align 4
  %20 = alloca i8, align 1
  store i64 %0, ptr %9, align 8, !tbaa !11
  store ptr %1, ptr %10, align 8, !tbaa !3
  store ptr %2, ptr %11, align 8, !tbaa !32
  store ptr %3, ptr %12, align 8, !tbaa !32
  store ptr %4, ptr %13, align 8, !tbaa !32
  store i64 %5, ptr %14, align 8, !tbaa !11
  store ptr %6, ptr %15, align 8, !tbaa !3
  store ptr %7, ptr %16, align 8, !tbaa !3
  call void @llvm.lifetime.start.p0(i64 304, ptr %17) #6
  call void @llvm.lifetime.start.p0(i64 8, ptr %18) #6
  store ptr %17, ptr %18, align 8, !tbaa !34
  call void @llvm.lifetime.start.p0(i64 4, ptr %19) #6
  store i32 0, ptr %19, align 4, !tbaa !36
  call void @llvm.lifetime.start.p0(i64 1, ptr %20) #6
  store i8 0, ptr %20, align 1, !tbaa !15
  %21 = load i64, ptr %9, align 8, !tbaa !11
  %22 = icmp ugt i64 %21, 1
  br i1 %22, label %23, label %48

23:                                               ; preds = %8
  %24 = load i64, ptr %9, align 8, !tbaa !11
  %25 = mul i64 %24, 304
  %26 = call noalias ptr @malloc(i64 noundef %25) #7
  store ptr %26, ptr %18, align 8, !tbaa !34
  %27 = icmp eq ptr null, %26
  br i1 %27, label %28, label %47

28:                                               ; preds = %23
  br label %29

29:                                               ; preds = %28
  br label %30

30:                                               ; preds = %29
  br label %31

31:                                               ; preds = %30
  %32 = load i64, ptr @H5E_DATASET_g, align 8, !tbaa !11
  %33 = load i64, ptr @H5E_CANTALLOC_g, align 8, !tbaa !11
  %34 = call i32 (ptr, ptr, i32, i64, i64, ptr, ...) @H5E_printf_stack(ptr noundef @.str, ptr noundef @__func__.H5VL__native_dataset_read, i32 noundef 362, i64 noundef %32, i64 noundef %33, ptr noundef @.str.8)
  br label %35

35:                                               ; preds = %31
  br label %36

36:                                               ; preds = %35
  store i8 1, ptr %20, align 1, !tbaa !15
  %37 = load i8, ptr %20, align 1, !tbaa !15, !range !20, !noundef !21
  %38 = trunc i8 %37 to i1
  %39 = zext i1 %38 to i8
  store i8 %39, ptr %20, align 1, !tbaa !15
  br label %40

40:                                               ; preds = %36
  br label %41

41:                                               ; preds = %40
  br label %42

42:                                               ; preds = %41
  store i32 -1, ptr %19, align 4, !tbaa !36
  br label %104

43:                                               ; No predecessors!
  br label %44

44:                                               ; preds = %43
  br label %45

45:                                               ; preds = %44
  br label %46

46:                                               ; preds = %45
  br label %47

47:                                               ; preds = %46, %23
  br label %48

48:                                               ; preds = %47, %8
  %49 = load i64, ptr %9, align 8, !tbaa !11
  %50 = load ptr, ptr %10, align 8, !tbaa !3
  %51 = load ptr, ptr %11, align 8, !tbaa !32
  %52 = load ptr, ptr %12, align 8, !tbaa !32
  %53 = load ptr, ptr %13, align 8, !tbaa !32
  %54 = load i64, ptr %14, align 8, !tbaa !11
  %55 = load ptr, ptr %15, align 8, !tbaa !3
  %56 = load ptr, ptr %18, align 8, !tbaa !34
  %57 = call i32 @H5VL__native_dataset_io_setup(i64 noundef %49, ptr noundef %50, ptr noundef %51, ptr noundef %52, ptr noundef %53, i64 noundef %54, ptr noundef %55, ptr noundef %56)
  %58 = icmp slt i32 %57, 0
  br i1 %58, label %59, label %78

59:                                               ; preds = %48
  br label %60

60:                                               ; preds = %59
  br label %61

61:                                               ; preds = %60
  br label %62

62:                                               ; preds = %61
  %63 = load i64, ptr @H5E_DATASET_g, align 8, !tbaa !11
  %64 = load i64, ptr @H5E_CANTINIT_g, align 8, !tbaa !11
  %65 = call i32 (ptr, ptr, i32, i64, i64, ptr, ...) @H5E_printf_stack(ptr noundef @.str, ptr noundef @__func__.H5VL__native_dataset_read, i32 noundef 367, i64 noundef %63, i64 noundef %64, ptr noundef @.str.9)
  br label %66

66:                                               ; preds = %62
  br label %67

67:                                               ; preds = %66
  store i8 1, ptr %20, align 1, !tbaa !15
  %68 = load i8, ptr %20, align 1, !tbaa !15, !range !20, !noundef !21
  %69 = trunc i8 %68 to i1
  %70 = zext i1 %69 to i8
  store i8 %70, ptr %20, align 1, !tbaa !15
  br label %71

71:                                               ; preds = %67
  br label %72

72:                                               ; preds = %71
  br label %73

73:                                               ; preds = %72
  store i32 -1, ptr %19, align 4, !tbaa !36
  br label %104

74:                                               ; No predecessors!
  br label %75

75:                                               ; preds = %74
  br label %76

76:                                               ; preds = %75
  br label %77

77:                                               ; preds = %76
  br label %78

78:                                               ; preds = %77, %48
  %79 = load i64, ptr %14, align 8, !tbaa !11
  call void @H5CX_set_dxpl(i64 noundef %79)
  %80 = load i64, ptr %9, align 8, !tbaa !11
  %81 = load ptr, ptr %18, align 8, !tbaa !34
  %82 = call i32 @H5D__read(i64 noundef %80, ptr noundef %81)
  %83 = icmp slt i32 %82, 0
  br i1 %83, label %84, label %103

84:                                               ; preds = %78
  br label %85

85:                                               ; preds = %84
  br label %86

86:                                               ; preds = %85
  br label %87

87:                                               ; preds = %86
  %88 = load i64, ptr @H5E_DATASET_g, align 8, !tbaa !11
  %89 = load i64, ptr @H5E_READERROR_g, align 8, !tbaa !11
  %90 = call i32 (ptr, ptr, i32, i64, i64, ptr, ...) @H5E_printf_stack(ptr noundef @.str, ptr noundef @__func__.H5VL__native_dataset_read, i32 noundef 374, i64 noundef %88, i64 noundef %89, ptr noundef @.str.10)
  br label %91

91:                                               ; preds = %87
  br label %92

92:                                               ; preds = %91
  store i8 1, ptr %20, align 1, !tbaa !15
  %93 = load i8, ptr %20, align 1, !tbaa !15, !range !20, !noundef !21
  %94 = trunc i8 %93 to i1
  %95 = zext i1 %94 to i8
  store i8 %95, ptr %20, align 1, !tbaa !15
  br label %96

96:                                               ; preds = %92
  br label %97

97:                                               ; preds = %96
  br label %98

98:                                               ; preds = %97
  store i32 -1, ptr %19, align 4, !tbaa !36
  br label %104

99:                                               ; No predecessors!
  br label %100

100:                                              ; preds = %99
  br label %101

101:                                              ; preds = %100
  br label %102

102:                                              ; preds = %101
  br label %103

103:                                              ; preds = %102, %78
  br label %104

104:                                              ; preds = %103, %98, %73, %42
  %105 = load i64, ptr %9, align 8, !tbaa !11
  %106 = load ptr, ptr %12, align 8, !tbaa !32
  %107 = load ptr, ptr %13, align 8, !tbaa !32
  %108 = load ptr, ptr %18, align 8, !tbaa !34
  %109 = call i32 @H5VL__native_dataset_io_cleanup(i64 noundef %105, ptr noundef %106, ptr noundef %107, ptr noundef %108)
  %110 = icmp slt i32 %109, 0
  br i1 %110, label %111, label %127

111:                                              ; preds = %104
  br label %112

112:                                              ; preds = %111
  br label %113

113:                                              ; preds = %112
  br label %114

114:                                              ; preds = %113
  %115 = load i64, ptr @H5E_DATASET_g, align 8, !tbaa !11
  %116 = load i64, ptr @H5E_CANTRELEASE_g, align 8, !tbaa !11
  %117 = call i32 (ptr, ptr, i32, i64, i64, ptr, ...) @H5E_printf_stack(ptr noundef @.str, ptr noundef @__func__.H5VL__native_dataset_read, i32 noundef 379, i64 noundef %115, i64 noundef %116, ptr noundef @.str.11)
  br label %118

118:                                              ; preds = %114
  br label %119

119:                                              ; preds = %118
  store i8 1, ptr %20, align 1, !tbaa !15
  %120 = load i8, ptr %20, align 1, !tbaa !15, !range !20, !noundef !21
  %121 = trunc i8 %120 to i1
  %122 = zext i1 %121 to i8
  store i8 %122, ptr %20, align 1, !tbaa !15
  br label %123

123:                                              ; preds = %119
  br label %124

124:                                              ; preds = %123
  store i32 -1, ptr %19, align 4, !tbaa !36
  br label %125

125:                                              ; preds = %124
  br label %126

126:                                              ; preds = %125
  br label %127

127:                                              ; preds = %126, %104
  %128 = load ptr, ptr %18, align 8, !tbaa !34
  %129 = icmp ne ptr %128, %17
  br i1 %129, label %130, label %133

130:                                              ; preds = %127
  %131 = load ptr, ptr %18, align 8, !tbaa !34
  %132 = call ptr @H5MM_xfree(ptr noundef %131)
  br label %133

133:                                              ; preds = %130, %127
  %134 = load i32, ptr %19, align 4, !tbaa !36
  call void @llvm.lifetime.end.p0(i64 1, ptr %20) #6
  call void @llvm.lifetime.end.p0(i64 4, ptr %19) #6
  call void @llvm.lifetime.end.p0(i64 8, ptr %18) #6
  call void @llvm.lifetime.end.p0(i64 304, ptr %17) #6
  ret i32 %134
}